; Function Attrs: mustprogress uwtable
define void @_ZN6google8protobuf37EnumDescriptorProto_EnumReservedRangeC2EPNS0_5ArenaERKS1_(ptr noundef nonnull align 8 dereferenceable(32) %this, ptr noundef %arena, ptr nocapture noundef nonnull readonly align 8 dereferenceable(32) %from) unnamed_addr #3 align 2 personality ptr @__gxx_personality_v0 {
entry:
  %_internal_metadata_.i.i.i = getelementptr inbounds i8, ptr %this, i64 8
  %0 = ptrtoint ptr %arena to i64
  store i64 %0, ptr %_internal_metadata_.i.i.i, align 8
  store ptr getelementptr inbounds ({ [13 x ptr] }, ptr @_ZTVN6google8protobuf37EnumDescriptorProto_EnumReservedRangeE, i64 0, i32 0, i64 2), ptr %this, align 8
  %arrayinit.cur.i.i.ptr.i.i = getelementptr inbounds i8, ptr %this, i64 16
  tail call void @llvm.memset.p0.i64(ptr noundef nonnull align 8 dereferenceable(16) %arrayinit.cur.i.i.ptr.i.i, i8 0, i64 16, i1 false)
  %1 = getelementptr inbounds i8, ptr %from, i64 16
  %2 = load i32, ptr %1, align 8
  %and.i.i = and i32 %2, 3
  %tobool.not.i.i = icmp eq i32 %and.i.i, 0
  br i1 %tobool.not.i.i, label %if.end11.i.i, label %if.then.i.i

if.then.i.i:                                      ; preds = %entry
  %and2.i.i = and i32 %2, 1
  %tobool3.not.i.i = icmp eq i32 %and2.i.i, 0
  br i1 %tobool3.not.i.i, label %if.end.i.i, label %if.then4.i.i

if.then4.i.i:                                     ; preds = %if.then.i.i
  %start_.i.i = getelementptr inbounds i8, ptr %from, i64 24
  %3 = load i32, ptr %start_.i.i, align 8
  %start_5.i.i = getelementptr inbounds i8, ptr %this, i64 24
  store i32 %3, ptr %start_5.i.i, align 8
  br label %if.end.i.i

if.end.i.i:                                       ; preds = %if.then4.i.i, %if.then.i.i
  %and6.i.i = and i32 %2, 2
  %tobool7.not.i.i = icmp eq i32 %and6.i.i, 0
  br i1 %tobool7.not.i.i, label %if.end11.i.i, label %if.then8.i.i

if.then8.i.i:                                     ; preds = %if.end.i.i
  %end_.i.i = getelementptr inbounds i8, ptr %from, i64 28
  %4 = load i32, ptr %end_.i.i, align 4
  %end_9.i.i = getelementptr inbounds i8, ptr %this, i64 28
  store i32 %4, ptr %end_9.i.i, align 4
  br label %if.end11.i.i

if.end11.i.i:                                     ; preds = %if.then8.i.i, %if.end.i.i, %entry
  store i32 %2, ptr %arrayinit.cur.i.i.ptr.i.i, align 8
  %_internal_metadata_14.i.i = getelementptr inbounds i8, ptr %from, i64 8
  %5 = load i64, ptr %_internal_metadata_14.i.i, align 8
  %and.i33.i.i = and i64 %5, 1
  %tobool.i34.not.i.i = icmp eq i64 %and.i33.i.i, 0
  br i1 %tobool.i34.not.i.i, label %invoke.cont, label %if.then.i20.i.i

if.then.i20.i.i:                                  ; preds = %if.end11.i.i
  %and.i.i.i = and i64 %5, -2
  %6 = inttoptr i64 %and.i.i.i to ptr
  %unknown_fields.i.i.i = getelementptr inbounds i8, ptr %6, i64 8
  invoke void @_ZN6google8protobuf8internal16InternalMetadata11DoMergeFromINS0_15UnknownFieldSetEEEvRKT_(ptr noundef nonnull align 8 dereferenceable(8) %_internal_metadata_.i.i.i, ptr noundef nonnull align 8 dereferenceable(24) %unknown_fields.i.i.i)
          to label %invoke.cont unwind label %lpad

invoke.cont:                                      ; preds = %if.end11.i.i, %if.then.i20.i.i
  ret void

lpad:                                             ; preds = %if.then.i20.i.i
  %7 = landingpad { ptr, i32 }
          cleanup
  tail call void @_ZN6google8protobuf37EnumDescriptorProto_EnumReservedRangeD2Ev(ptr noundef nonnull align 8 dereferenceable(32) %this) #22
  resume { ptr, i32 } %7
}